; Function Attrs: mustprogress nounwind uwtable
define dso_local void @_ZN4llvm14MCWasmStreamer21fixSymbolsInTLSFixupsEPKNS_6MCExprE(ptr nocapture noundef nonnull readonly align 8 dereferenceable(425) %0, ptr nocapture noundef readonly %1) local_unnamed_addr #0 align 2 {
  br label %tailrecurse

tailrecurse:                                      ; preds = %tailrecurse.backedge, %2
  %.tr10 = phi ptr [ %1, %2 ], [ %.tr10.be, %tailrecurse.backedge ]
  %3 = load i8, ptr %.tr10, align 8
  switch i8 %3, label %.loopexit [
    i8 3, label %tailrecurse.backedge
    i8 2, label %8
    i8 0, label %4
  ]

4:                                                ; preds = %tailrecurse
  %5 = getelementptr inbounds nuw i8, ptr %.tr10, i64 16
  %6 = load ptr, ptr %5, align 8
  tail call void @_ZN4llvm14MCWasmStreamer21fixSymbolsInTLSFixupsEPKNS_6MCExprE(ptr noundef nonnull align 8 dereferenceable(425) %0, ptr noundef %6)
  br label %tailrecurse.backedge

tailrecurse.backedge:                             ; preds = %tailrecurse, %4
  %.sink = phi i64 [ 24, %4 ], [ 16, %tailrecurse ]
  %7 = getelementptr inbounds nuw i8, ptr %.tr10, i64 %.sink
  %.tr10.be = load ptr, ptr %7, align 8
  br label %tailrecurse

8:                                                ; preds = %tailrecurse
  %9 = getelementptr inbounds nuw i8, ptr %.tr10, i64 1
  %10 = load i32, ptr %9, align 1
  %11 = trunc i32 %10 to i16
  switch i16 %11, label %.loopexit [
    i16 136, label %12
    i16 139, label %12
  ]

12:                                               ; preds = %8, %8
  %13 = getelementptr inbounds nuw i8, ptr %0, i64 288
  %14 = load ptr, ptr %13, align 8
  %15 = getelementptr inbounds nuw i8, ptr %.tr10, i64 16
  %16 = load ptr, ptr %15, align 8
  %17 = tail call noundef zeroext i1 @_ZN4llvm11MCAssembler14registerSymbolERKNS_8MCSymbolE(ptr noundef nonnull align 8 dereferenceable(372) %14, ptr noundef nonnull align 8 dereferenceable(32) %16) #12
  %18 = load ptr, ptr %15, align 8
  %19 = getelementptr inbounds nuw i8, ptr %18, i64 8
  %20 = load i64, ptr %19, align 8
  %21 = or i64 %20, 1099511627776
  store i64 %21, ptr %19, align 8
  br label %.loopexit

.loopexit:                                        ; preds = %tailrecurse, %12, %8
  ret void
}